target datalayout = "e-m:e-p270:32:32-p271:32:32-p272:64:64-i64:64-i128:128-f80:128-n8:16:32:64-S128"
target triple = "x86_64-pc-linux-gnu"

@mpd_free = external hidden global ptr, align 8

; Function Attrs: nounwind uwtable
define hidden i32 @std_fnt(ptr noundef %0, i64 noundef %1, i32 noundef %2) #0 {
  %4 = alloca i32, align 4
  %5 = alloca ptr, align 8
  %6 = alloca i64, align 8
  %7 = alloca i32, align 4
  %8 = alloca ptr, align 8
  %9 = alloca i32, align 4
  store ptr %0, ptr %5, align 8, !tbaa !3
  store i64 %1, ptr %6, align 8, !tbaa !8
  store i32 %2, ptr %7, align 4, !tbaa !10
  call void @llvm.lifetime.start.p0(i64 8, ptr %8) #3
  %10 = load i64, ptr %6, align 8, !tbaa !8
  %11 = load i32, ptr %7, align 4, !tbaa !10
  %12 = call ptr @_mpd_init_fnt_params(i64 noundef %10, i32 noundef -1, i32 noundef %11)
  store ptr %12, ptr %8, align 8, !tbaa !12
  %13 = icmp eq ptr %12, null
  br i1 %13, label %14, label %15

14:                                               ; preds = %3
  store i32 0, ptr %4, align 4
  store i32 1, ptr %9, align 4
  br label %21

15:                                               ; preds = %3
  %16 = load ptr, ptr %5, align 8, !tbaa !3
  %17 = load i64, ptr %6, align 8, !tbaa !8
  %18 = load ptr, ptr %8, align 8, !tbaa !12
  call void @fnt_dif2(ptr noundef %16, i64 noundef %17, ptr noundef %18)
  %19 = load ptr, ptr @mpd_free, align 8, !tbaa !14
  %20 = load ptr, ptr %8, align 8, !tbaa !12
  call void %19(ptr noundef %20)
  store i32 1, ptr %4, align 4
  store i32 1, ptr %9, align 4
  br label %21

21:                                               ; preds = %15, %14
  call void @llvm.lifetime.end.p0(i64 8, ptr %8) #3
  %22 = load i32, ptr %4, align 4
  ret i32 %22
}

; Function Attrs: nocallback nofree nosync nounwind willreturn memory(argmem: readwrite)
declare void @llvm.lifetime.start.p0(i64 immarg, ptr captures(none)) #1

declare hidden ptr @_mpd_init_fnt_params(i64 noundef, i32 noundef, i32 noundef) #2

declare hidden void @fnt_dif2(ptr noundef, i64 noundef, ptr noundef) #2

; Function Attrs: nocallback nofree nosync nounwind willreturn memory(argmem: readwrite)
declare void @llvm.lifetime.end.p0(i64 immarg, ptr captures(none)) #1

; Function Attrs: nounwind uwtable
define hidden i32 @std_inv_fnt(ptr noundef %0, i64 noundef %1, i32 noundef %2) #0 {
  %4 = alloca i32, align 4
  %5 = alloca ptr, align 8
  %6 = alloca i64, align 8
  %7 = alloca i32, align 4
  %8 = alloca ptr, align 8
  %9 = alloca i32, align 4
  store ptr %0, ptr %5, align 8, !tbaa !3
  store i64 %1, ptr %6, align 8, !tbaa !8
  store i32 %2, ptr %7, align 4, !tbaa !10
  call void @llvm.lifetime.start.p0(i64 8, ptr %8) #3
  %10 = load i64, ptr %6, align 8, !tbaa !8
  %11 = load i32, ptr %7, align 4, !tbaa !10
  %12 = call ptr @_mpd_init_fnt_params(i64 noundef %10, i32 noundef 1, i32 noundef %11)
  store ptr %12, ptr %8, align 8, !tbaa !12
  %13 = icmp eq ptr %12, null
  br i1 %13, label %14, label %15

14:                                               ; preds = %3
  store i32 0, ptr %4, align 4
  store i32 1, ptr %9, align 4
  br label %21

15:                                               ; preds = %3
  %16 = load ptr, ptr %5, align 8, !tbaa !3
  %17 = load i64, ptr %6, align 8, !tbaa !8
  %18 = load ptr, ptr %8, align 8, !tbaa !12
  call void @fnt_dif2(ptr noundef %16, i64 noundef %17, ptr noundef %18)
  %19 = load ptr, ptr @mpd_free, align 8, !tbaa !14
  %20 = load ptr, ptr %8, align 8, !tbaa !12
  call void %19(ptr noundef %20)
  store i32 1, ptr %4, align 4
  store i32 1, ptr %9, align 4
  br label %21

21:                                               ; preds = %15, %14
  call void @llvm.lifetime.end.p0(i64 8, ptr %8) #3
  %22 = load i32, ptr %4, align 4
  ret i32 %22
}


!llvm.module.flags = !{!0, !1, !2}

!0 = !{i32 1, !"wchar_size", i32 4}
!1 = !{i32 8, !"PIC Level", i32 2}
!2 = !{i32 7, !"uwtable", i32 2}
!3 = !{!4, !4, i64 0}
!4 = !{!"p1 long", !5, i64 0}
!5 = !{!"any pointer", !6, i64 0}
!6 = !{!"omnipotent char", !7, i64 0}
!7 = !{!"Simple C/C++ TBAA"}
!8 = !{!9, !9, i64 0}
!9 = !{!"long", !6, i64 0}
!10 = !{!11, !11, i64 0}
!11 = !{!"int", !6, i64 0}
!12 = !{!13, !13, i64 0}
!13 = !{!"p1 _ZTS10fnt_params", !5, i64 0}
!14 = !{!5, !5, i64 0}
